target datalayout = "e-m:e-p270:32:32-p271:32:32-p272:64:64-i64:64-i128:128-f80:128-n8:16:32:64-S128"
target triple = "x86_64-pc-linux-gnu"

%struct._object = type { %union.anon, ptr }
%union.anon = type { i64 }
%struct._typeobject = type { %struct.PyVarObject, ptr, i64, i64, ptr, i64, ptr, ptr, ptr, ptr, ptr, ptr, ptr, ptr, ptr, ptr, ptr, ptr, ptr, i64, ptr, ptr, ptr, ptr, i64, ptr, ptr, ptr, ptr, ptr, ptr, ptr, ptr, ptr, i64, ptr, ptr, ptr, ptr, ptr, ptr, ptr, ptr, ptr, ptr, ptr, i32, ptr, ptr, i8, i16 }
%struct.PyVarObject = type { %struct._object, i64 }
%struct._ffi_type = type { i64, i16, i16, ptr }
%struct.ctypes_state = type { ptr, ptr, ptr, ptr, ptr, ptr, ptr, ptr, ptr, ptr, ptr, ptr, ptr, ptr, ptr, ptr, ptr, ptr, ptr, ptr, ptr, ptr, ptr, ptr, ptr }
%struct.StgInfo = type { i32, i64, i64, i64, %struct._ffi_type, ptr, ptr, ptr, ptr, ptr, ptr, ptr, ptr, ptr, i32, ptr, i32, ptr }
%struct.tagCDataObject = type { %struct._object, ptr, i32, ptr, i64, i64, i64, ptr, %union.value }
%union.value = type { x86_fp80 }

@PyExc_TypeError = external global ptr, align 8
@.str.1 = private unnamed_addr constant [15 x i8] c"abstract class\00", align 1
@.str.2 = private unnamed_addr constant [13 x i8] c"ctypes.cdata\00", align 1
@.str.3 = private unnamed_addr constant [2 x i8] c"n\00", align 1

; Function Attrs: inlinehint nounwind uwtable
define internal i32 @_stginfo_from_type(ptr noundef %0, ptr noundef %1, ptr noundef %2) #2 {
  %4 = alloca i32, align 4
  %5 = alloca ptr, align 8
  %6 = alloca ptr, align 8
  %7 = alloca ptr, align 8
  %8 = alloca ptr, align 8
  %9 = alloca i32, align 4
  store ptr %0, ptr %5, align 8, !tbaa !3
  store ptr %1, ptr %6, align 8, !tbaa !50
  store ptr %2, ptr %7, align 8, !tbaa !3
  %10 = load ptr, ptr %7, align 8, !tbaa !3
  store ptr null, ptr %10, align 8, !tbaa !3
  %11 = load ptr, ptr %6, align 8, !tbaa !50
  %12 = load ptr, ptr %5, align 8, !tbaa !3
  %13 = getelementptr inbounds nuw %struct.ctypes_state, ptr %12, i32 0, i32 5
  %14 = load ptr, ptr %13, align 8, !tbaa !80
  %15 = call i32 @PyObject_IsInstance(ptr noundef %11, ptr noundef %14)
  %16 = icmp ne i32 %15, 0
  br i1 %16, label %18, label %17

17:                                               ; preds = %3
  store i32 0, ptr %4, align 4
  br label %33

18:                                               ; preds = %3
  call void @llvm.lifetime.start.p0(i64 8, ptr %8) #9
  %19 = load ptr, ptr %6, align 8, !tbaa !50
  %20 = load ptr, ptr %5, align 8, !tbaa !3
  %21 = getelementptr inbounds nuw %struct.ctypes_state, ptr %20, i32 0, i32 5
  %22 = load ptr, ptr %21, align 8, !tbaa !80
  %23 = call ptr @PyObject_GetTypeData(ptr noundef %19, ptr noundef %22)
  store ptr %23, ptr %8, align 8, !tbaa !3
  %24 = load ptr, ptr %8, align 8, !tbaa !3
  %25 = getelementptr inbounds nuw %struct.StgInfo, ptr %24, i32 0, i32 0
  %26 = load i32, ptr %25, align 8, !tbaa !115
  %27 = icmp ne i32 %26, 0
  br i1 %27, label %29, label %28

28:                                               ; preds = %18
  store i32 0, ptr %4, align 4
  store i32 1, ptr %9, align 4
  br label %32

29:                                               ; preds = %18
  %30 = load ptr, ptr %8, align 8, !tbaa !3
  %31 = load ptr, ptr %7, align 8, !tbaa !3
  store ptr %30, ptr %31, align 8, !tbaa !3
  store i32 1, ptr %4, align 4
  store i32 1, ptr %9, align 4
  br label %32

32:                                               ; preds = %29, %28
  call void @llvm.lifetime.end.p0(i64 8, ptr %8) #9
  br label %33

33:                                               ; preds = %32, %17
  %34 = load i32, ptr %4, align 4
  ret i32 %34
}

; Function Attrs: inlinehint nounwind uwtable
define internal i32 @PyStgInfo_FromType(ptr noundef %0, ptr noundef %1, ptr noundef %2) #2 {
  %4 = alloca ptr, align 8
  %5 = alloca ptr, align 8
  %6 = alloca ptr, align 8
  store ptr %0, ptr %4, align 8, !tbaa !3
  store ptr %1, ptr %5, align 8, !tbaa !7
  store ptr %2, ptr %6, align 8, !tbaa !3
  %7 = load ptr, ptr %4, align 8, !tbaa !3
  %8 = load ptr, ptr %5, align 8, !tbaa !7
  %9 = load ptr, ptr %6, align 8, !tbaa !3
  %10 = call i32 @_stginfo_from_type(ptr noundef %7, ptr noundef %8, ptr noundef %9)
  ret i32 %10
}

; Function Attrs: nounwind uwtable
define hidden ptr @PyCData_AtAddress(ptr noundef %0, ptr noundef %1, ptr noundef %2) #0 {
  %4 = alloca ptr, align 8
  %5 = alloca ptr, align 8
  %6 = alloca ptr, align 8
  %7 = alloca ptr, align 8
  %8 = alloca ptr, align 8
  %9 = alloca i32, align 4
  %10 = alloca ptr, align 8
  store ptr %0, ptr %5, align 8, !tbaa !3
  store ptr %1, ptr %6, align 8, !tbaa !7
  store ptr %2, ptr %7, align 8, !tbaa !3
  call void @llvm.lifetime.start.p0(i64 8, ptr %8) #9
  %11 = load ptr, ptr %7, align 8, !tbaa !3
  %12 = ptrtoint ptr %11 to i64
  %13 = call i32 (ptr, ptr, ...) @PySys_Audit(ptr noundef @.str.2, ptr noundef @.str.3, i64 noundef %12)
  %14 = icmp slt i32 %13, 0
  br i1 %14, label %15, label %16

15:                                               ; preds = %3
  store ptr null, ptr %4, align 8
  store i32 1, ptr %9, align 4
  br label %56

16:                                               ; preds = %3
  call void @llvm.lifetime.start.p0(i64 8, ptr %10) #9
  %17 = load ptr, ptr %5, align 8, !tbaa !3
  %18 = load ptr, ptr %6, align 8, !tbaa !7
  %19 = call i32 @PyStgInfo_FromType(ptr noundef %17, ptr noundef %18, ptr noundef %10)
  %20 = icmp slt i32 %19, 0
  br i1 %20, label %21, label %22

21:                                               ; preds = %16
  store ptr null, ptr %4, align 8
  store i32 1, ptr %9, align 4
  br label %55

22:                                               ; preds = %16
  %23 = load ptr, ptr %10, align 8, !tbaa !3
  %24 = icmp ne ptr %23, null
  br i1 %24, label %27, label %25

25:                                               ; preds = %22
  %26 = load ptr, ptr @PyExc_TypeError, align 8, !tbaa !7
  call void @PyErr_SetString(ptr noundef %26, ptr noundef @.str.1)
  store ptr null, ptr %4, align 8
  store i32 1, ptr %9, align 4
  br label %55

27:                                               ; preds = %22
  %28 = load ptr, ptr %10, align 8, !tbaa !3
  %29 = getelementptr inbounds nuw %struct.StgInfo, ptr %28, i32 0, i32 14
  %30 = load i32, ptr %29, align 8, !tbaa !27
  %31 = or i32 %30, 4096
  store i32 %31, ptr %29, align 8, !tbaa !27
  %32 = load ptr, ptr %6, align 8, !tbaa !7
  %33 = getelementptr inbounds nuw %struct._typeobject, ptr %32, i32 0, i32 36
  %34 = load ptr, ptr %33, align 8, !tbaa !33
  %35 = load ptr, ptr %6, align 8, !tbaa !7
  %36 = call ptr %34(ptr noundef %35, i64 noundef 0)
  store ptr %36, ptr %8, align 8, !tbaa !39
  %37 = load ptr, ptr %8, align 8, !tbaa !39
  %38 = icmp ne ptr %37, null
  br i1 %38, label %40, label %39

39:                                               ; preds = %27
  store ptr null, ptr %4, align 8
  store i32 1, ptr %9, align 4
  br label %55

40:                                               ; preds = %27
  %41 = load ptr, ptr %7, align 8, !tbaa !3
  %42 = load ptr, ptr %8, align 8, !tbaa !39
  %43 = getelementptr inbounds nuw %struct.tagCDataObject, ptr %42, i32 0, i32 1
  store ptr %41, ptr %43, align 16, !tbaa !46
  %44 = load ptr, ptr %10, align 8, !tbaa !3
  %45 = getelementptr inbounds nuw %struct.StgInfo, ptr %44, i32 0, i32 3
  %46 = load i64, ptr %45, align 8, !tbaa !41
  %47 = load ptr, ptr %8, align 8, !tbaa !39
  %48 = getelementptr inbounds nuw %struct.tagCDataObject, ptr %47, i32 0, i32 5
  store i64 %46, ptr %48, align 16, !tbaa !42
  %49 = load ptr, ptr %10, align 8, !tbaa !3
  %50 = getelementptr inbounds nuw %struct.StgInfo, ptr %49, i32 0, i32 1
  %51 = load i64, ptr %50, align 8, !tbaa !44
  %52 = load ptr, ptr %8, align 8, !tbaa !39
  %53 = getelementptr inbounds nuw %struct.tagCDataObject, ptr %52, i32 0, i32 4
  store i64 %51, ptr %53, align 8, !tbaa !45
  %54 = load ptr, ptr %8, align 8, !tbaa !39
  store ptr %54, ptr %4, align 8
  store i32 1, ptr %9, align 4
  br label %55

55:                                               ; preds = %40, %39, %25, %21
  call void @llvm.lifetime.end.p0(i64 8, ptr %10) #9
  br label %56

56:                                               ; preds = %55, %15
  call void @llvm.lifetime.end.p0(i64 8, ptr %8) #9
  %57 = load ptr, ptr %4, align 8
  ret ptr %57
}