; Function Attrs: nounwind uwtable
define hidden ptr @PyCData_AtAddress(ptr noundef readonly captures(none) %0, ptr noundef %1, ptr noundef %2) local_unnamed_addr #0 {
  %4 = ptrtoint ptr %2 to i64
  %5 = tail call i32 (ptr, ptr, ...) @PySys_Audit(ptr noundef nonnull @.str.2, ptr noundef nonnull @.str.3, i64 noundef %4) #17
  %6 = icmp slt i32 %5, 0
  br i1 %6, label %31, label %7

7:                                                ; preds = %3
  %8 = getelementptr inbounds nuw i8, ptr %0, i64 40
  %9 = load ptr, ptr %8, align 8, !tbaa !28
  %10 = tail call i32 @PyObject_IsInstance(ptr noundef %1, ptr noundef %9) #17
  %.not.i.i = icmp eq i32 %10, 0
  br i1 %.not.i.i, label %15, label %11

11:                                               ; preds = %7
  %12 = load ptr, ptr %8, align 8, !tbaa !28
  %13 = tail call ptr @PyObject_GetTypeData(ptr noundef %1, ptr noundef %12) #17
  %14 = load i32, ptr %13, align 8, !tbaa !29
  %.not8.i.i = icmp eq i32 %14, 0
  br i1 %.not8.i.i, label %15, label %PyStgInfo_FromType.exit

15:                                               ; preds = %7, %11
  %16 = load ptr, ptr @PyExc_TypeError, align 8, !tbaa !27
  tail call void @PyErr_SetString(ptr noundef %16, ptr noundef nonnull @.str.1) #17
  br label %31

PyStgInfo_FromType.exit:                          ; preds = %11
  %17 = getelementptr inbounds nuw i8, ptr %13, i64 128
  %18 = load i32, ptr %17, align 8, !tbaa !34
  %19 = or i32 %18, 4096
  store i32 %19, ptr %17, align 8, !tbaa !34
  %20 = getelementptr inbounds nuw i8, ptr %1, i64 304
  %21 = load ptr, ptr %20, align 8, !tbaa !35
  %22 = tail call ptr %21(ptr noundef %1, i64 noundef 0) #17
  %.not14 = icmp eq ptr %22, null
  br i1 %.not14, label %31, label %23

23:                                               ; preds = %PyStgInfo_FromType.exit
  %24 = getelementptr inbounds nuw i8, ptr %22, i64 16
  store ptr %2, ptr %24, align 16, !tbaa !42
  %25 = getelementptr inbounds nuw i8, ptr %13, i64 24
  %26 = load i64, ptr %25, align 8, !tbaa !36
  %27 = getelementptr inbounds nuw i8, ptr %22, i64 48
  store i64 %26, ptr %27, align 16, !tbaa !37
  %28 = getelementptr inbounds nuw i8, ptr %13, i64 8
  %29 = load i64, ptr %28, align 8, !tbaa !40
  %30 = getelementptr inbounds nuw i8, ptr %22, i64 40
  store i64 %29, ptr %30, align 8, !tbaa !41
  br label %31

31:                                               ; preds = %15, %23, %PyStgInfo_FromType.exit, %3
  %.0 = phi ptr [ null, %3 ], [ %22, %23 ], [ null, %15 ], [ null, %PyStgInfo_FromType.exit ]
  ret ptr %.0
}